target datalayout = "e-m:e-p270:32:32-p271:32:32-p272:64:64-i64:64-i128:128-f80:128-n8:16:32:64-S128"
target triple = "x86_64-unknown-linux-gnu"

%struct.QEMUIOVector = type { ptr, i32, %union.anon }
%union.anon = type { %struct.anon }
%struct.anon = type { i32, %struct.iovec }
%struct.iovec = type { ptr, i64 }
%struct.IDEState = type { ptr, i8, i32, i32, i32, i32, i32, i32, i32, i64, i32, i32, [512 x i8], i32, [21 x i8], [41 x i8], i64, i8, i8, i32, i8, i8, i8, i8, i8, i8, i8, i8, i8, i8, i8, i8, i8, ptr, [9 x i8], %struct.unreported_events, i8, i8, i8, i8, i8, i32, i32, i32, i32, i32, i32, %struct.BlockAcctCookie, ptr, %struct.QEMUIOVector, %struct.anon.1, i64, i32, %struct.QEMUSGList, i32, ptr, ptr, ptr, ptr, i32, i32, i32, i8, ptr, i32, i8, i32, ptr, i32, i32, i8, i8, i32, i8, ptr, i32 }
%struct.unreported_events = type { i8, i8 }
%struct.BlockAcctCookie = type { i64, i64, i32 }
%struct.anon.1 = type { ptr }
%struct.QEMUSGList = type { ptr, i32, i32, i64, ptr, ptr }

; Function Attrs: nounwind sspstrong uwtable
define internal zeroext i1 @ide_atapi_gesn_needed(ptr noundef %opaque) #0 {
entry:
  %opaque.addr = alloca ptr, align 8
  %s = alloca ptr, align 8
  store ptr %opaque, ptr %opaque.addr, align 8
  %0 = load ptr, ptr %opaque.addr, align 8
  store ptr %0, ptr %s, align 8
  %1 = load ptr, ptr %s, align 8
  %events = getelementptr inbounds %struct.IDEState, ptr %1, i32 0, i32 35
  %new_media = getelementptr inbounds %struct.unreported_events, ptr %events, i32 0, i32 1
  %2 = load i8, ptr %new_media, align 1
  %tobool = trunc i8 %2 to i1
  br i1 %tobool, label %lor.end, label %lor.rhs

lor.rhs:                                          ; preds = %entry
  %3 = load ptr, ptr %s, align 8
  %events1 = getelementptr inbounds %struct.IDEState, ptr %3, i32 0, i32 35
  %eject_request = getelementptr inbounds %struct.unreported_events, ptr %events1, i32 0, i32 0
  %4 = load i8, ptr %eject_request, align 1
  %tobool2 = trunc i8 %4 to i1
  br label %lor.end

lor.end:                                          ; preds = %lor.rhs, %entry
  %5 = phi i1 [ true, %entry ], [ %tobool2, %lor.rhs ]
  ret i1 %5
}