; Function Attrs: mustprogress nofree norecurse nosync nounwind sspstrong willreturn memory(argmem: read) uwtable
define internal zeroext i1 @ide_atapi_gesn_needed(ptr noundef readonly captures(none) %opaque) #2 {
entry:
  %new_media = getelementptr inbounds nuw i8, ptr %opaque, i64 690
  %0 = load i8, ptr %new_media, align 1
  %tobool = trunc i8 %0 to i1
  br i1 %tobool, label %lor.end, label %lor.rhs

lor.rhs:                                          ; preds = %entry
  %events = getelementptr inbounds nuw i8, ptr %opaque, i64 689
  %1 = load i8, ptr %events, align 1
  %tobool2 = trunc i8 %1 to i1
  br label %lor.end

lor.end:                                          ; preds = %lor.rhs, %entry
  %2 = phi i1 [ true, %entry ], [ %tobool2, %lor.rhs ]
  ret i1 %2
}